; Function Attrs: mustprogress nounwind uwtable
define internal fastcc noundef zeroext i1 @_ZN5clang19RecursiveASTVisitorIZNK12_GLOBAL__N_114PaddingChecker12checkASTDeclEPKNS_19TranslationUnitDeclERNS_4ento15AnalysisManagerERNS6_11BugReporterEE12LocalVisitorE36TraverseExclusiveTrylockFunctionAttrEPNS_28ExclusiveTrylockFunctionAttrE(ptr noundef nonnull align 1 dereferenceable(1) %0, ptr nocapture noundef readonly %1) unnamed_addr #0 align 2 {
  %3 = getelementptr inbounds nuw i8, ptr %1, i64 40
  %4 = load ptr, ptr %3, align 8
  %5 = tail call fastcc noundef zeroext i1 @_ZN5clang19RecursiveASTVisitorIZNK12_GLOBAL__N_114PaddingChecker12checkASTDeclEPKNS_19TranslationUnitDeclERNS_4ento15AnalysisManagerERNS6_11BugReporterEE12LocalVisitorE12TraverseStmtEPNS_4StmtEPN4llvm15SmallVectorImplINSF_14PointerIntPairISE_Lj1EbNSF_21PointerLikeTypeTraitsISE_EENSF_18PointerIntPairInfoISE_Lj1ESJ_EEEEEE(ptr noundef nonnull align 1 dereferenceable(1) %0, ptr noundef %4, ptr noundef null)
  br i1 %5, label %6, label %.loopexit

6:                                                ; preds = %2
  %7 = getelementptr inbounds nuw i8, ptr %1, i64 56
  %8 = load ptr, ptr %7, align 8
  %9 = getelementptr inbounds nuw i8, ptr %1, i64 48
  %10 = load i32, ptr %9, align 8
  %11 = zext i32 %10 to i64
  %12 = getelementptr inbounds ptr, ptr %8, i64 %11
  %.not12 = icmp eq i32 %10, 0
  br i1 %.not12, label %.loopexit, label %.lr.ph

.lr.ph:                                           ; preds = %6, %.lr.ph
  %.01113 = phi ptr [ %15, %.lr.ph ], [ %8, %6 ]
  %13 = load ptr, ptr %.01113, align 8
  %14 = tail call fastcc noundef zeroext i1 @_ZN5clang19RecursiveASTVisitorIZNK12_GLOBAL__N_114PaddingChecker12checkASTDeclEPKNS_19TranslationUnitDeclERNS_4ento15AnalysisManagerERNS6_11BugReporterEE12LocalVisitorE12TraverseStmtEPNS_4StmtEPN4llvm15SmallVectorImplINSF_14PointerIntPairISE_Lj1EbNSF_21PointerLikeTypeTraitsISE_EENSF_18PointerIntPairInfoISE_Lj1ESJ_EEEEEE(ptr noundef nonnull align 1 dereferenceable(1) %0, ptr noundef %13, ptr noundef null)
  %15 = getelementptr inbounds i8, ptr %.01113, i64 8
  %.not = icmp ne ptr %15, %12
  %or.cond.not = select i1 %14, i1 %.not, i1 false
  br i1 %or.cond.not, label %.lr.ph, label %.loopexit, !llvm.loop !92

.loopexit:                                        ; preds = %.lr.ph, %6, %2
  %.0 = phi i1 [ false, %2 ], [ true, %6 ], [ %14, %.lr.ph ]
  ret i1 %.0
}